target datalayout = "e-m:e-p270:32:32-p271:32:32-p272:64:64-i64:64-i128:128-f80:128-n8:16:32:64-S128"
target triple = "x86_64-pc-linux-gnu"

%struct.mbedtls_camellia_context = type { i32, [68 x i32] }

; Function Attrs: mustprogress uwtable
define hidden void @mbedtls_camellia_free(ptr noundef %0) #2 {
  %2 = alloca ptr, align 8
  store ptr %0, ptr %2, align 8, !tbaa !3
  %3 = load ptr, ptr %2, align 8, !tbaa !3
  %4 = icmp eq ptr %3, null
  br i1 %4, label %5, label %6

5:                                                ; preds = %1
  br label %8

6:                                                ; preds = %1
  %7 = load ptr, ptr %2, align 8, !tbaa !3
  call void @mbedtls_platform_zeroize(ptr noundef %7, i64 noundef 276)
  br label %8

8:                                                ; preds = %6, %5
  ret void
}

; Function Attrs: mustprogress nounwind uwtable
define hidden void @mbedtls_camellia_init(ptr noundef %0) #0 {
  %2 = alloca ptr, align 8
  store ptr %0, ptr %2, align 8, !tbaa !3
  br label %3

3:                                                ; preds = %1
  br label %4

4:                                                ; preds = %3
  %5 = load ptr, ptr %2, align 8, !tbaa !3
  call void @llvm.memset.p0.i64(ptr align 4 %5, i8 0, i64 276, i1 false)
  ret void
}

; Function Attrs: mustprogress uwtable
define hidden i32 @mbedtls_camellia_setkey_dec(ptr noundef %0, ptr noundef %1, i32 noundef %2) #2 {
  %4 = alloca ptr, align 8
  %5 = alloca ptr, align 8
  %6 = alloca i32, align 4
  %7 = alloca i32, align 4
  %8 = alloca i32, align 4
  %9 = alloca i64, align 8
  %10 = alloca %struct.mbedtls_camellia_context, align 4
  %11 = alloca ptr, align 8
  %12 = alloca ptr, align 8
  store ptr %0, ptr %4, align 8, !tbaa !3
  store ptr %1, ptr %5, align 8, !tbaa !8
  store i32 %2, ptr %6, align 4, !tbaa !10
  call void @llvm.lifetime.start.p0(i64 4, ptr %7) #5
  call void @llvm.lifetime.start.p0(i64 4, ptr %8) #5
  call void @llvm.lifetime.start.p0(i64 8, ptr %9) #5
  call void @llvm.lifetime.start.p0(i64 276, ptr %10) #5
  call void @llvm.lifetime.start.p0(i64 8, ptr %11) #5
  call void @llvm.lifetime.start.p0(i64 8, ptr %12) #5
  br label %13

13:                                               ; preds = %3
  br label %14

14:                                               ; preds = %13
  br label %15

15:                                               ; preds = %14
  br label %16

16:                                               ; preds = %15
  br label %17

17:                                               ; preds = %16
  br label %18

18:                                               ; preds = %17
  call void @mbedtls_camellia_init(ptr noundef %10)
  %19 = load ptr, ptr %5, align 8, !tbaa !8
  %20 = load i32, ptr %6, align 4, !tbaa !10
  %21 = call i32 @mbedtls_camellia_setkey_enc(ptr noundef %10, ptr noundef %19, i32 noundef %20)
  store i32 %21, ptr %8, align 4, !tbaa !10
  %22 = icmp ne i32 %21, 0
  br i1 %22, label %23, label %24

23:                                               ; preds = %18
  br label %113

24:                                               ; preds = %18
  %25 = getelementptr inbounds nuw %struct.mbedtls_camellia_context, ptr %10, i32 0, i32 0
  %26 = load i32, ptr %25, align 4, !tbaa !14
  %27 = load ptr, ptr %4, align 8, !tbaa !3
  %28 = getelementptr inbounds nuw %struct.mbedtls_camellia_context, ptr %27, i32 0, i32 0
  store i32 %26, ptr %28, align 4, !tbaa !14
  %29 = load ptr, ptr %4, align 8, !tbaa !3
  %30 = getelementptr inbounds nuw %struct.mbedtls_camellia_context, ptr %29, i32 0, i32 0
  %31 = load i32, ptr %30, align 4, !tbaa !14
  %32 = icmp eq i32 %31, 4
  %33 = zext i1 %32 to i32
  store i32 %33, ptr %7, align 4, !tbaa !10
  %34 = load ptr, ptr %4, align 8, !tbaa !3
  %35 = getelementptr inbounds nuw %struct.mbedtls_camellia_context, ptr %34, i32 0, i32 1
  %36 = getelementptr inbounds [68 x i32], ptr %35, i64 0, i64 0
  store ptr %36, ptr %11, align 8, !tbaa !12
  %37 = getelementptr inbounds nuw %struct.mbedtls_camellia_context, ptr %10, i32 0, i32 1
  %38 = getelementptr inbounds [68 x i32], ptr %37, i64 0, i64 0
  %39 = getelementptr inbounds i32, ptr %38, i64 48
  %40 = load i32, ptr %7, align 4, !tbaa !10
  %41 = mul nsw i32 8, %40
  %42 = mul nsw i32 %41, 2
  %43 = sext i32 %42 to i64
  %44 = getelementptr inbounds i32, ptr %39, i64 %43
  store ptr %44, ptr %12, align 8, !tbaa !12
  %45 = load ptr, ptr %12, align 8, !tbaa !12
  %46 = getelementptr inbounds nuw i32, ptr %45, i32 1
  store ptr %46, ptr %12, align 8, !tbaa !12
  %47 = load i32, ptr %45, align 4, !tbaa !10
  %48 = load ptr, ptr %11, align 8, !tbaa !12
  %49 = getelementptr inbounds nuw i32, ptr %48, i32 1
  store ptr %49, ptr %11, align 8, !tbaa !12
  store i32 %47, ptr %48, align 4, !tbaa !10
  %50 = load ptr, ptr %12, align 8, !tbaa !12
  %51 = getelementptr inbounds nuw i32, ptr %50, i32 1
  store ptr %51, ptr %12, align 8, !tbaa !12
  %52 = load i32, ptr %50, align 4, !tbaa !10
  %53 = load ptr, ptr %11, align 8, !tbaa !12
  %54 = getelementptr inbounds nuw i32, ptr %53, i32 1
  store ptr %54, ptr %11, align 8, !tbaa !12
  store i32 %52, ptr %53, align 4, !tbaa !10
  %55 = load ptr, ptr %12, align 8, !tbaa !12
  %56 = getelementptr inbounds nuw i32, ptr %55, i32 1
  store ptr %56, ptr %12, align 8, !tbaa !12
  %57 = load i32, ptr %55, align 4, !tbaa !10
  %58 = load ptr, ptr %11, align 8, !tbaa !12
  %59 = getelementptr inbounds nuw i32, ptr %58, i32 1
  store ptr %59, ptr %11, align 8, !tbaa !12
  store i32 %57, ptr %58, align 4, !tbaa !10
  %60 = load ptr, ptr %12, align 8, !tbaa !12
  %61 = getelementptr inbounds nuw i32, ptr %60, i32 1
  store ptr %61, ptr %12, align 8, !tbaa !12
  %62 = load i32, ptr %60, align 4, !tbaa !10
  %63 = load ptr, ptr %11, align 8, !tbaa !12
  %64 = getelementptr inbounds nuw i32, ptr %63, i32 1
  store ptr %64, ptr %11, align 8, !tbaa !12
  store i32 %62, ptr %63, align 4, !tbaa !10
  %65 = load i32, ptr %7, align 4, !tbaa !10
  %66 = mul nsw i32 8, %65
  %67 = add nsw i32 22, %66
  %68 = sext i32 %67 to i64
  store i64 %68, ptr %9, align 8, !tbaa !16
  %69 = load ptr, ptr %12, align 8, !tbaa !12
  %70 = getelementptr inbounds i32, ptr %69, i64 -6
  store ptr %70, ptr %12, align 8, !tbaa !12
  br label %71

71:                                               ; preds = %85, %24
  %72 = load i64, ptr %9, align 8, !tbaa !16
  %73 = icmp ugt i64 %72, 0
  br i1 %73, label %74, label %90

74:                                               ; preds = %71
  %75 = load ptr, ptr %12, align 8, !tbaa !12
  %76 = getelementptr inbounds nuw i32, ptr %75, i32 1
  store ptr %76, ptr %12, align 8, !tbaa !12
  %77 = load i32, ptr %75, align 4, !tbaa !10
  %78 = load ptr, ptr %11, align 8, !tbaa !12
  %79 = getelementptr inbounds nuw i32, ptr %78, i32 1
  store ptr %79, ptr %11, align 8, !tbaa !12
  store i32 %77, ptr %78, align 4, !tbaa !10
  %80 = load ptr, ptr %12, align 8, !tbaa !12
  %81 = getelementptr inbounds nuw i32, ptr %80, i32 1
  store ptr %81, ptr %12, align 8, !tbaa !12
  %82 = load i32, ptr %80, align 4, !tbaa !10
  %83 = load ptr, ptr %11, align 8, !tbaa !12
  %84 = getelementptr inbounds nuw i32, ptr %83, i32 1
  store ptr %84, ptr %11, align 8, !tbaa !12
  store i32 %82, ptr %83, align 4, !tbaa !10
  br label %85

85:                                               ; preds = %74
  %86 = load i64, ptr %9, align 8, !tbaa !16
  %87 = add i64 %86, -1
  store i64 %87, ptr %9, align 8, !tbaa !16
  %88 = load ptr, ptr %12, align 8, !tbaa !12
  %89 = getelementptr inbounds i32, ptr %88, i64 -4
  store ptr %89, ptr %12, align 8, !tbaa !12
  br label %71, !llvm.loop !36

90:                                               ; preds = %71
  %91 = load ptr, ptr %12, align 8, !tbaa !12
  %92 = getelementptr inbounds i32, ptr %91, i64 -2
  store ptr %92, ptr %12, align 8, !tbaa !12
  %93 = load ptr, ptr %12, align 8, !tbaa !12
  %94 = getelementptr inbounds nuw i32, ptr %93, i32 1
  store ptr %94, ptr %12, align 8, !tbaa !12
  %95 = load i32, ptr %93, align 4, !tbaa !10
  %96 = load ptr, ptr %11, align 8, !tbaa !12
  %97 = getelementptr inbounds nuw i32, ptr %96, i32 1
  store ptr %97, ptr %11, align 8, !tbaa !12
  store i32 %95, ptr %96, align 4, !tbaa !10
  %98 = load ptr, ptr %12, align 8, !tbaa !12
  %99 = getelementptr inbounds nuw i32, ptr %98, i32 1
  store ptr %99, ptr %12, align 8, !tbaa !12
  %100 = load i32, ptr %98, align 4, !tbaa !10
  %101 = load ptr, ptr %11, align 8, !tbaa !12
  %102 = getelementptr inbounds nuw i32, ptr %101, i32 1
  store ptr %102, ptr %11, align 8, !tbaa !12
  store i32 %100, ptr %101, align 4, !tbaa !10
  %103 = load ptr, ptr %12, align 8, !tbaa !12
  %104 = getelementptr inbounds nuw i32, ptr %103, i32 1
  store ptr %104, ptr %12, align 8, !tbaa !12
  %105 = load i32, ptr %103, align 4, !tbaa !10
  %106 = load ptr, ptr %11, align 8, !tbaa !12
  %107 = getelementptr inbounds nuw i32, ptr %106, i32 1
  store ptr %107, ptr %11, align 8, !tbaa !12
  store i32 %105, ptr %106, align 4, !tbaa !10
  %108 = load ptr, ptr %12, align 8, !tbaa !12
  %109 = getelementptr inbounds nuw i32, ptr %108, i32 1
  store ptr %109, ptr %12, align 8, !tbaa !12
  %110 = load i32, ptr %108, align 4, !tbaa !10
  %111 = load ptr, ptr %11, align 8, !tbaa !12
  %112 = getelementptr inbounds nuw i32, ptr %111, i32 1
  store ptr %112, ptr %11, align 8, !tbaa !12
  store i32 %110, ptr %111, align 4, !tbaa !10
  br label %113

113:                                              ; preds = %90, %23
  call void @mbedtls_camellia_free(ptr noundef %10)
  %114 = load i32, ptr %8, align 4, !tbaa !10
  call void @llvm.lifetime.end.p0(i64 8, ptr %12) #5
  call void @llvm.lifetime.end.p0(i64 8, ptr %11) #5
  call void @llvm.lifetime.end.p0(i64 276, ptr %10) #5
  call void @llvm.lifetime.end.p0(i64 8, ptr %9) #5
  call void @llvm.lifetime.end.p0(i64 4, ptr %8) #5
  call void @llvm.lifetime.end.p0(i64 4, ptr %7) #5
  ret i32 %114
}